; Function Attrs: mustprogress noinline uwtable
define hidden void @_ZN6google8protobuf8internal16InternalMetadata7DoClearINSt7__cxx1112basic_stringIcSt11char_traitsIcESaIcEEEEEvv(ptr noundef nonnull align 8 dereferenceable(8) %0) local_unnamed_addr #6 align 2 personality ptr @__gxx_personality_v0 {
  %2 = load i64, ptr %0, align 8, !tbaa !85
  %3 = and i64 %2, 1
  %.not = icmp eq i64 %3, 0
  br i1 %.not, label %8, label %4, !prof !30

4:                                                ; preds = %1
  %5 = and i64 %2, -4
  %6 = inttoptr i64 %5 to ptr
  %7 = getelementptr inbounds nuw i8, ptr %6, i64 8
  br label %_ZN6google8protobuf8internal16InternalMetadata22mutable_unknown_fieldsINSt7__cxx1112basic_stringIcSt11char_traitsIcESaIcEEEEEPT_v.exit

8:                                                ; preds = %1
  %9 = tail call noundef ptr @_ZN6google8protobuf8internal16InternalMetadata27mutable_unknown_fields_slowINSt7__cxx1112basic_stringIcSt11char_traitsIcESaIcEEEEEPT_v(ptr noundef nonnull align 8 dereferenceable(8) %0)
  br label %_ZN6google8protobuf8internal16InternalMetadata22mutable_unknown_fieldsINSt7__cxx1112basic_stringIcSt11char_traitsIcESaIcEEEEEPT_v.exit

_ZN6google8protobuf8internal16InternalMetadata22mutable_unknown_fieldsINSt7__cxx1112basic_stringIcSt11char_traitsIcESaIcEEEEEPT_v.exit: ; preds = %4, %8
  %.0.i = phi ptr [ %7, %4 ], [ %9, %8 ]
  %10 = getelementptr inbounds nuw i8, ptr %.0.i, i64 8
  store i64 0, ptr %10, align 8, !tbaa !39
  %11 = load ptr, ptr %.0.i, align 8, !tbaa !36
  store i8 0, ptr %11, align 1, !tbaa !38
  ret void
}